; Function Attrs: nounwind uwtable
define internal fastcc void @Io_NtkWritePos(ptr noundef nonnull captures(none) %0, ptr noundef readonly captures(none) %1, i32 noundef %2) unnamed_addr #0 {
  %.not = icmp eq i32 %2, 0
  br i1 %.not, label %.preheader, label %.preheader49

.preheader49:                                     ; preds = %3
  %4 = getelementptr i8, ptr %1, i64 48
  %.val51 = load ptr, ptr %4, align 8
  %5 = getelementptr i8, ptr %.val51, i64 4
  %.val.val52 = load i32, ptr %5, align 4
  %6 = icmp sgt i32 %.val.val52, 0
  br i1 %6, label %.lr.ph, label %.critedge

.preheader:                                       ; preds = %3
  %7 = getelementptr i8, ptr %1, i64 64
  %.val4757 = load ptr, ptr %7, align 8
  %8 = getelementptr i8, ptr %.val4757, i64 4
  %.val47.val58 = load i32, ptr %8, align 4
  %9 = icmp sgt i32 %.val47.val58, 0
  br i1 %9, label %.lr.ph63, label %.critedge

.lr.ph:                                           ; preds = %.preheader49, %28
  %indvars.iv = phi i64 [ %indvars.iv.next, %28 ], [ 0, %.preheader49 ]
  %.val56 = phi ptr [ %.val, %28 ], [ %.val51, %.preheader49 ]
  %.03454 = phi i32 [ %32, %28 ], [ 0, %.preheader49 ]
  %.03653 = phi i32 [ %31, %28 ], [ 8, %.preheader49 ]
  %10 = getelementptr i8, ptr %.val56, i64 8
  %.val42.val = load ptr, ptr %10, align 8
  %11 = getelementptr inbounds nuw ptr, ptr %.val42.val, i64 %indvars.iv
  %12 = load ptr, ptr %11, align 8
  %.val45 = load ptr, ptr %12, align 8
  %13 = getelementptr i8, ptr %12, i64 32
  %.val46 = load ptr, ptr %13, align 8
  %14 = getelementptr i8, ptr %.val45, i64 32
  %.val45.val = load ptr, ptr %14, align 8
  %.val46.val = load i32, ptr %.val46, align 4
  %15 = getelementptr i8, ptr %.val45.val, i64 8
  %.val45.val.val = load ptr, ptr %15, align 8
  %16 = sext i32 %.val46.val to i64
  %17 = getelementptr inbounds ptr, ptr %.val45.val.val, i64 %16
  %18 = load ptr, ptr %17, align 8
  %19 = tail call ptr @Abc_ObjName(ptr noundef %18) #10
  %20 = tail call i64 @strlen(ptr noundef nonnull dereferenceable(1) %19) #11
  %21 = trunc i64 %20 to i32
  %22 = add i32 %21, 1
  %.not41 = icmp eq i32 %.03454, 0
  br i1 %.not41, label %28, label %23

23:                                               ; preds = %.lr.ph
  %24 = add nsw i32 %22, %.03653
  %25 = icmp sgt i32 %24, 75
  br i1 %25, label %26, label %28

26:                                               ; preds = %23
  %27 = tail call i64 @fwrite(ptr nonnull @.str.15, i64 3, i64 1, ptr nonnull %0)
  br label %28

28:                                               ; preds = %26, %23, %.lr.ph
  %.137 = phi i32 [ 0, %26 ], [ %.03653, %23 ], [ %.03653, %.lr.ph ]
  %.135 = phi i32 [ 0, %26 ], [ %.03454, %23 ], [ 0, %.lr.ph ]
  %29 = tail call ptr @Abc_ObjName(ptr noundef %18) #10
  %30 = tail call i32 (ptr, ptr, ...) @fprintf(ptr noundef nonnull %0, ptr noundef nonnull @.str.40, ptr noundef %29) #10
  %31 = add nsw i32 %.137, %22
  %32 = add nsw i32 %.135, 1
  %indvars.iv.next = add nuw nsw i64 %indvars.iv, 1
  %.val = load ptr, ptr %4, align 8
  %33 = getelementptr i8, ptr %.val, i64 4
  %.val.val = load i32, ptr %33, align 4
  %34 = sext i32 %.val.val to i64
  %35 = icmp slt i64 %indvars.iv.next, %34
  br i1 %35, label %.lr.ph, label %.critedge, !llvm.loop !50

.lr.ph63:                                         ; preds = %.preheader, %54
  %indvars.iv66 = phi i64 [ %indvars.iv.next67, %54 ], [ 0, %.preheader ]
  %.val4762 = phi ptr [ %.val47, %54 ], [ %.val4757, %.preheader ]
  %.260 = phi i32 [ %58, %54 ], [ 0, %.preheader ]
  %.23859 = phi i32 [ %57, %54 ], [ 8, %.preheader ]
  %36 = getelementptr i8, ptr %.val4762, i64 8
  %.val48.val = load ptr, ptr %36, align 8
  %37 = getelementptr inbounds nuw ptr, ptr %.val48.val, i64 %indvars.iv66
  %38 = load ptr, ptr %37, align 8
  %.val43 = load ptr, ptr %38, align 8
  %39 = getelementptr i8, ptr %38, i64 32
  %.val44 = load ptr, ptr %39, align 8
  %40 = getelementptr i8, ptr %.val43, i64 32
  %.val43.val = load ptr, ptr %40, align 8
  %.val44.val = load i32, ptr %.val44, align 4
  %41 = getelementptr i8, ptr %.val43.val, i64 8
  %.val43.val.val = load ptr, ptr %41, align 8
  %42 = sext i32 %.val44.val to i64
  %43 = getelementptr inbounds ptr, ptr %.val43.val.val, i64 %42
  %44 = load ptr, ptr %43, align 8
  %45 = tail call ptr @Abc_ObjName(ptr noundef %44) #10
  %46 = tail call i64 @strlen(ptr noundef nonnull dereferenceable(1) %45) #11
  %47 = trunc i64 %46 to i32
  %48 = add i32 %47, 1
  %.not40 = icmp eq i32 %.260, 0
  br i1 %.not40, label %54, label %49

49:                                               ; preds = %.lr.ph63
  %50 = add nsw i32 %48, %.23859
  %51 = icmp sgt i32 %50, 75
  br i1 %51, label %52, label %54

52:                                               ; preds = %49
  %53 = tail call i64 @fwrite(ptr nonnull @.str.15, i64 3, i64 1, ptr nonnull %0)
  br label %54

54:                                               ; preds = %52, %49, %.lr.ph63
  %.339 = phi i32 [ 0, %52 ], [ %.23859, %49 ], [ %.23859, %.lr.ph63 ]
  %.3 = phi i32 [ 0, %52 ], [ %.260, %49 ], [ 0, %.lr.ph63 ]
  %55 = tail call ptr @Abc_ObjName(ptr noundef %44) #10
  %56 = tail call i32 (ptr, ptr, ...) @fprintf(ptr noundef nonnull %0, ptr noundef nonnull @.str.40, ptr noundef %55) #10
  %57 = add nsw i32 %.339, %48
  %58 = add nsw i32 %.3, 1
  %indvars.iv.next67 = add nuw nsw i64 %indvars.iv66, 1
  %.val47 = load ptr, ptr %7, align 8
  %59 = getelementptr i8, ptr %.val47, i64 4
  %.val47.val = load i32, ptr %59, align 4
  %60 = sext i32 %.val47.val to i64
  %61 = icmp slt i64 %indvars.iv.next67, %60
  br i1 %61, label %.lr.ph63, label %.critedge, !llvm.loop !51

.critedge:                                        ; preds = %28, %54, %.preheader49, %.preheader
  ret void
}